; Function Attrs: mustprogress uwtable
define void @_ZNK8QuantLib21DifferentialEvolution14adaptCrossoverEv(ptr noundef nonnull align 8 dereferenceable(5200) %this) local_unnamed_addr #0 align 2 {
entry:
  %currGenCrossover_ = getelementptr inbounds nuw i8, ptr %this, i64 160
  %0 = load ptr, ptr %currGenCrossover_, align 8, !tbaa !23
  %n_.i = getelementptr inbounds nuw i8, ptr %this, i64 168
  %1 = load i64, ptr %n_.i, align 8, !tbaa !21
  %add.ptr.i = getelementptr inbounds nuw double, ptr %0, i64 %1
  %cmp.not24 = icmp eq i64 %1, 0
  br i1 %cmp.not24, label %for.cond.cleanup, label %for.body.lr.ph

for.body.lr.ph:                                   ; preds = %entry
  %rng_ = getelementptr inbounds nuw i8, ptr %this, i64 200
  %mti.i.i = getelementptr inbounds nuw i8, ptr %this, i64 5192
  %.pre = load i64, ptr %mti.i.i, align 8, !tbaa !68
  br label %for.body

for.cond.cleanup:                                 ; preds = %if.end, %entry
  ret void

for.body:                                         ; preds = %for.body.lr.ph, %if.end
  %2 = phi i64 [ %.pre, %for.body.lr.ph ], [ %7, %if.end ]
  %__begin1.025 = phi ptr [ %0, %for.body.lr.ph ], [ %incdec.ptr, %if.end ]
  %cmp.i.i = icmp eq i64 %2, 624
  br i1 %cmp.i.i, label %if.then.i.i, label %_ZNK8QuantLib25MersenneTwisterUniformRng8nextRealEv.exit

if.then.i.i:                                      ; preds = %for.body
  tail call void @_ZNK8QuantLib25MersenneTwisterUniformRng5twistEv(ptr noundef nonnull align 8 dereferenceable(5000) %rng_)
  %.pre.i.i = load i64, ptr %mti.i.i, align 8, !tbaa !68
  br label %_ZNK8QuantLib25MersenneTwisterUniformRng8nextRealEv.exit

_ZNK8QuantLib25MersenneTwisterUniformRng8nextRealEv.exit: ; preds = %for.body, %if.then.i.i
  %3 = phi i64 [ %.pre.i.i, %if.then.i.i ], [ %2, %for.body ]
  %inc.i.i = add i64 %3, 1
  store i64 %inc.i.i, ptr %mti.i.i, align 8, !tbaa !68
  %arrayidx.i.i = getelementptr inbounds nuw [624 x i64], ptr %rng_, i64 0, i64 %3
  %4 = load i64, ptr %arrayidx.i.i, align 8, !tbaa !24
  %shr.i.i = lshr i64 %4, 11
  %xor.i.i = xor i64 %shr.i.i, %4
  %shl.i.i = shl i64 %xor.i.i, 7
  %and.i.i = and i64 %shl.i.i, 2636928640
  %xor3.i.i = xor i64 %and.i.i, %xor.i.i
  %shl4.i.i = shl i64 %xor3.i.i, 15
  %and5.i.i = and i64 %shl4.i.i, 4022730752
  %xor6.i.i = xor i64 %and5.i.i, %xor3.i.i
  %shr7.i.i = lshr i64 %xor6.i.i, 18
  %xor8.i.i = xor i64 %shr7.i.i, %xor6.i.i
  %conv.i = uitofp i64 %xor8.i.i to double
  %add.i = fadd double %conv.i, 5.000000e-01
  %div.i = fmul double %add.i, 0x3DF0000000000000
  %cmp4 = fcmp olt double %div.i, 1.000000e-01
  br i1 %cmp4, label %if.then, label %if.end

if.then:                                          ; preds = %_ZNK8QuantLib25MersenneTwisterUniformRng8nextRealEv.exit
  %cmp.i.i5 = icmp eq i64 %inc.i.i, 624
  br i1 %cmp.i.i5, label %if.then.i.i21, label %_ZNK8QuantLib25MersenneTwisterUniformRng8nextRealEv.exit23

if.then.i.i21:                                    ; preds = %if.then
  tail call void @_ZNK8QuantLib25MersenneTwisterUniformRng5twistEv(ptr noundef nonnull align 8 dereferenceable(5000) %rng_)
  %.pre.i.i22 = load i64, ptr %mti.i.i, align 8, !tbaa !68
  br label %_ZNK8QuantLib25MersenneTwisterUniformRng8nextRealEv.exit23

_ZNK8QuantLib25MersenneTwisterUniformRng8nextRealEv.exit23: ; preds = %if.then, %if.then.i.i21
  %5 = phi i64 [ %.pre.i.i22, %if.then.i.i21 ], [ %inc.i.i, %if.then ]
  %inc.i.i6 = add i64 %5, 1
  store i64 %inc.i.i6, ptr %mti.i.i, align 8, !tbaa !68
  %arrayidx.i.i7 = getelementptr inbounds nuw [624 x i64], ptr %rng_, i64 0, i64 %5
  %6 = load i64, ptr %arrayidx.i.i7, align 8, !tbaa !24
  %shr.i.i8 = lshr i64 %6, 11
  %xor.i.i9 = xor i64 %shr.i.i8, %6
  %shl.i.i10 = shl i64 %xor.i.i9, 7
  %and.i.i11 = and i64 %shl.i.i10, 2636928640
  %xor3.i.i12 = xor i64 %and.i.i11, %xor.i.i9
  %shl4.i.i13 = shl i64 %xor3.i.i12, 15
  %and5.i.i14 = and i64 %shl4.i.i13, 4022730752
  %xor6.i.i15 = xor i64 %and5.i.i14, %xor3.i.i12
  %shr7.i.i16 = lshr i64 %xor6.i.i15, 18
  %xor8.i.i17 = xor i64 %shr7.i.i16, %xor6.i.i15
  %conv.i18 = uitofp i64 %xor8.i.i17 to double
  %add.i19 = fadd double %conv.i18, 5.000000e-01
  %div.i20 = fmul double %add.i19, 0x3DF0000000000000
  store double %div.i20, ptr %__begin1.025, align 8, !tbaa !40
  br label %if.end

if.end:                                           ; preds = %_ZNK8QuantLib25MersenneTwisterUniformRng8nextRealEv.exit23, %_ZNK8QuantLib25MersenneTwisterUniformRng8nextRealEv.exit
  %7 = phi i64 [ %inc.i.i6, %_ZNK8QuantLib25MersenneTwisterUniformRng8nextRealEv.exit23 ], [ %inc.i.i, %_ZNK8QuantLib25MersenneTwisterUniformRng8nextRealEv.exit ]
  %incdec.ptr = getelementptr inbounds nuw i8, ptr %__begin1.025, i64 8
  %cmp.not = icmp eq ptr %incdec.ptr, %add.ptr.i
  br i1 %cmp.not, label %for.cond.cleanup, label %for.body
}